target datalayout = "e-m:e-p270:32:32-p271:32:32-p272:64:64-i64:64-i128:128-f80:128-n8:16:32:64-S128"
target triple = "x86_64-unknown-linux-gnu"

%class.symbol = type { ptr }
%"class.spacer::prop_solver" = type <{ ptr, %class.symbol, [2 x %class.ref], [2 x %class.scoped_ptr], ptr, %class.ptr_vector, %class.ref_vector, %class.ref_vector, %class.obj_hashtable, ptr, ptr, i8, [3 x i8], i32, i8, i8, i8, i8, i32, %class.random_gen, [4 x i8] }>
%class.ref = type { ptr }
%class.scoped_ptr = type { ptr }
%class.ptr_vector = type { %class.vector }
%class.vector = type { ptr }
%class.ref_vector = type { %class.ref_vector_core }
%class.ref_vector_core = type { %class.ref_manager_wrapper, %class.ptr_vector.0 }
%class.ref_manager_wrapper = type { ptr }
%class.ptr_vector.0 = type { %class.vector.1 }
%class.vector.1 = type { ptr }
%class.obj_hashtable = type { %class.core_hashtable.base, [4 x i8] }
%class.core_hashtable.base = type <{ ptr, i32, i32, i32 }>
%class.random_gen = type { i32 }

; Function Attrs: mustprogress nounwind uwtable
define linkonce_odr hidden noundef ptr @_ZNK10scoped_ptrIN6spacer10iuc_solverEEptEv(ptr noundef nonnull align 8 dereferenceable(8) %this) #6 comdat align 2 {
entry:
  %this.addr = alloca ptr, align 8
  store ptr %this, ptr %this.addr, align 8
  %this1 = load ptr, ptr %this.addr, align 8
  %m_ptr = getelementptr inbounds %class.scoped_ptr, ptr %this1, i32 0, i32 0
  %0 = load ptr, ptr %m_ptr, align 8
  ret ptr %0
}

; Function Attrs: mustprogress uwtable
define hidden void @_ZNK6spacer11prop_solver18collect_statisticsER10statistics(ptr noundef nonnull align 8 dereferenceable(156) %this, ptr noundef nonnull align 8 dereferenceable(16) %st) #4 align 2 {
entry:
  %this.addr = alloca ptr, align 8
  %st.addr = alloca ptr, align 8
  store ptr %this, ptr %this.addr, align 8
  store ptr %st, ptr %st.addr, align 8
  %this1 = load ptr, ptr %this.addr, align 8
  %m_contexts = getelementptr inbounds %"class.spacer::prop_solver", ptr %this1, i32 0, i32 3
  %arrayidx = getelementptr inbounds [2 x %class.scoped_ptr], ptr %m_contexts, i64 0, i64 0
  %call = call noundef ptr @_ZNK10scoped_ptrIN6spacer10iuc_solverEEptEv(ptr noundef nonnull align 8 dereferenceable(8) %arrayidx)
  %0 = load ptr, ptr %st.addr, align 8
  %vtable = load ptr, ptr %call, align 8
  %vfn = getelementptr inbounds ptr, ptr %vtable, i64 2
  %1 = load ptr, ptr %vfn, align 8
  call void %1(ptr noundef nonnull align 8 dereferenceable(398) %call, ptr noundef nonnull align 8 dereferenceable(16) %0)
  %m_contexts2 = getelementptr inbounds %"class.spacer::prop_solver", ptr %this1, i32 0, i32 3
  %arrayidx3 = getelementptr inbounds [2 x %class.scoped_ptr], ptr %m_contexts2, i64 0, i64 1
  %call4 = call noundef ptr @_ZNK10scoped_ptrIN6spacer10iuc_solverEEptEv(ptr noundef nonnull align 8 dereferenceable(8) %arrayidx3)
  %2 = load ptr, ptr %st.addr, align 8
  %vtable5 = load ptr, ptr %call4, align 8
  %vfn6 = getelementptr inbounds ptr, ptr %vtable5, i64 2
  %3 = load ptr, ptr %vfn6, align 8
  call void %3(ptr noundef nonnull align 8 dereferenceable(398) %call4, ptr noundef nonnull align 8 dereferenceable(16) %2)
  ret void
}