; Function Attrs: mustprogress uwtable
define hidden void @_ZNK6spacer11prop_solver18collect_statisticsER10statistics(ptr nocapture noundef nonnull readonly align 8 dereferenceable(156) %this, ptr noundef nonnull align 8 dereferenceable(16) %st) local_unnamed_addr #3 align 2 {
entry:
  %m_contexts = getelementptr inbounds i8, ptr %this, i64 32
  %0 = load ptr, ptr %m_contexts, align 8
  %vtable = load ptr, ptr %0, align 8
  %vfn = getelementptr inbounds i8, ptr %vtable, i64 16
  %1 = load ptr, ptr %vfn, align 8
  tail call void %1(ptr noundef nonnull align 8 dereferenceable(398) %0, ptr noundef nonnull align 8 dereferenceable(16) %st)
  %arrayidx3 = getelementptr inbounds i8, ptr %this, i64 40
  %2 = load ptr, ptr %arrayidx3, align 8
  %vtable5 = load ptr, ptr %2, align 8
  %vfn6 = getelementptr inbounds i8, ptr %vtable5, i64 16
  %3 = load ptr, ptr %vfn6, align 8
  tail call void %3(ptr noundef nonnull align 8 dereferenceable(398) %2, ptr noundef nonnull align 8 dereferenceable(16) %st)
  ret void
}